target datalayout = "e-m:e-p270:32:32-p271:32:32-p272:64:64-i64:64-i128:128-f80:128-n8:16:32:64-S128"
target triple = "x86_64-pc-linux-gnu"

$_Z17_v128_comgt_epu32RKDv2_xS1_ = comdat any

; Function Attrs: mustprogress norecurse uwtable
define dso_local noundef i32 @main() #0 {
  %1 = alloca i32, align 4
  %2 = alloca <2 x i64>, align 16
  %3 = alloca <2 x i64>, align 16
  %4 = alloca <2 x i64>, align 16
  store i32 0, ptr %1, align 4
  call void @llvm.lifetime.start.p0(i64 16, ptr %2) #5
  call void @llvm.lifetime.start.p0(i64 16, ptr %3) #5
  call void @llvm.lifetime.start.p0(i64 16, ptr %4) #5
  %5 = call noundef <2 x i64> @_ZL14_mm_set1_epi32i(i32 noundef 0)
  store <2 x i64> %5, ptr %2, align 16, !tbaa !4
  %6 = call noundef <2 x i64> @_ZL14_mm_set1_epi32i(i32 noundef 65535)
  store <2 x i64> %6, ptr %3, align 16, !tbaa !4
  %7 = call noundef <2 x i64> @_Z17_v128_comgt_epu32RKDv2_xS1_(ptr noundef nonnull align 16 dereferenceable(16) %2, ptr noundef nonnull align 16 dereferenceable(16) %3)
  store <2 x i64> %7, ptr %4, align 16, !tbaa !4
  call void @llvm.lifetime.end.p0(i64 16, ptr %4) #5
  call void @llvm.lifetime.end.p0(i64 16, ptr %3) #5
  call void @llvm.lifetime.end.p0(i64 16, ptr %2) #5
  ret i32 0
}

; Function Attrs: nocallback nofree nosync nounwind willreturn memory(argmem: readwrite)
declare void @llvm.lifetime.start.p0(i64 immarg, ptr captures(none)) #1

; Function Attrs: alwaysinline mustprogress uwtable
define internal noundef <2 x i64> @_ZL14_mm_set1_epi32i(i32 noundef %0) #2 {
  %2 = alloca i32, align 4
  store i32 %0, ptr %2, align 4, !tbaa !7
  %3 = load i32, ptr %2, align 4, !tbaa !7
  %4 = load i32, ptr %2, align 4, !tbaa !7
  %5 = load i32, ptr %2, align 4, !tbaa !7
  %6 = load i32, ptr %2, align 4, !tbaa !7
  %7 = call noundef <2 x i64> @_ZL13_mm_set_epi32iiii(i32 noundef %3, i32 noundef %4, i32 noundef %5, i32 noundef %6)
  ret <2 x i64> %7
}

; Function Attrs: inlinehint mustprogress uwtable
define linkonce_odr dso_local noundef <2 x i64> @_Z17_v128_comgt_epu32RKDv2_xS1_(ptr noundef nonnull align 16 dereferenceable(16) %0, ptr noundef nonnull align 16 dereferenceable(16) %1) #3 comdat {
  %3 = alloca ptr, align 8
  %4 = alloca ptr, align 8
  %5 = alloca <2 x i64>, align 16
  store ptr %0, ptr %3, align 8, !tbaa !9
  store ptr %1, ptr %4, align 8, !tbaa !9
  call void @llvm.lifetime.start.p0(i64 16, ptr %5) #5
  %6 = call noundef <2 x i64> @_ZL14_mm_set1_epi32i(i32 noundef -2147483648)
  store <2 x i64> %6, ptr %5, align 16, !tbaa !4
  %7 = load ptr, ptr %3, align 8, !tbaa !9
  %8 = load <2 x i64>, ptr %7, align 16, !tbaa !4
  %9 = call noundef <2 x i64> @_ZL13_mm_xor_si128Dv2_xS_(<2 x i64> noundef %8, <2 x i64> noundef splat (i64 -9223372034707292160))
  %10 = load ptr, ptr %4, align 8, !tbaa !9
  %11 = load <2 x i64>, ptr %10, align 16, !tbaa !4
  %12 = call noundef <2 x i64> @_ZL13_mm_xor_si128Dv2_xS_(<2 x i64> noundef %11, <2 x i64> noundef splat (i64 -9223372034707292160))
  %13 = call noundef <2 x i64> @_ZL15_mm_cmpgt_epi32Dv2_xS_(<2 x i64> noundef %9, <2 x i64> noundef %12)
  call void @llvm.lifetime.end.p0(i64 16, ptr %5) #5
  ret <2 x i64> %13
}

; Function Attrs: nocallback nofree nosync nounwind willreturn memory(argmem: readwrite)
declare void @llvm.lifetime.end.p0(i64 immarg, ptr captures(none)) #1

; Function Attrs: alwaysinline mustprogress nounwind uwtable
define internal noundef <2 x i64> @_ZL13_mm_set_epi32iiii(i32 noundef %0, i32 noundef %1, i32 noundef %2, i32 noundef %3) #4 {
  %5 = alloca i32, align 4
  %6 = alloca i32, align 4
  %7 = alloca i32, align 4
  %8 = alloca i32, align 4
  %9 = alloca <4 x i32>, align 16
  store i32 %0, ptr %5, align 4, !tbaa !7
  store i32 %1, ptr %6, align 4, !tbaa !7
  store i32 %2, ptr %7, align 4, !tbaa !7
  store i32 %3, ptr %8, align 4, !tbaa !7
  %10 = load i32, ptr %8, align 4, !tbaa !7
  %11 = insertelement <4 x i32> poison, i32 %10, i32 0
  %12 = load i32, ptr %7, align 4, !tbaa !7
  %13 = insertelement <4 x i32> %11, i32 %12, i32 1
  %14 = load i32, ptr %6, align 4, !tbaa !7
  %15 = insertelement <4 x i32> %13, i32 %14, i32 2
  %16 = load i32, ptr %5, align 4, !tbaa !7
  %17 = insertelement <4 x i32> %15, i32 %16, i32 3
  store <4 x i32> %17, ptr %9, align 16, !tbaa !4
  %18 = load <4 x i32>, ptr %9, align 16, !tbaa !4
  %19 = bitcast <4 x i32> %18 to <2 x i64>
  ret <2 x i64> %19
}

; Function Attrs: alwaysinline mustprogress nounwind uwtable
define internal noundef <2 x i64> @_ZL15_mm_cmpgt_epi32Dv2_xS_(<2 x i64> noundef %0, <2 x i64> noundef %1) #4 {
  %3 = alloca <2 x i64>, align 16
  %4 = alloca <2 x i64>, align 16
  store <2 x i64> %0, ptr %3, align 16, !tbaa !4
  store <2 x i64> %1, ptr %4, align 16, !tbaa !4
  %5 = load <2 x i64>, ptr %3, align 16, !tbaa !4
  %6 = bitcast <2 x i64> %5 to <4 x i32>
  %7 = load <2 x i64>, ptr %4, align 16, !tbaa !4
  %8 = bitcast <2 x i64> %7 to <4 x i32>
  %9 = icmp sgt <4 x i32> %6, %8
  %10 = sext <4 x i1> %9 to <4 x i32>
  %11 = bitcast <4 x i32> %10 to <2 x i64>
  ret <2 x i64> %11
}

; Function Attrs: alwaysinline mustprogress nounwind uwtable
define internal noundef <2 x i64> @_ZL13_mm_xor_si128Dv2_xS_(<2 x i64> noundef %0, <2 x i64> noundef %1) #4 {
  %3 = alloca <2 x i64>, align 16
  %4 = alloca <2 x i64>, align 16
  store <2 x i64> %0, ptr %3, align 16, !tbaa !4
  store <2 x i64> %1, ptr %4, align 16, !tbaa !4
  %5 = load <2 x i64>, ptr %3, align 16, !tbaa !4
  %6 = load <2 x i64>, ptr %4, align 16, !tbaa !4
  %7 = xor <2 x i64> %5, %6
  ret <2 x i64> %7
}


!llvm.module.flags = !{!0, !1, !2, !3}

!0 = !{i32 1, !"wchar_size", i32 4}
!1 = !{i32 8, !"PIC Level", i32 2}
!2 = !{i32 7, !"PIE Level", i32 2}
!3 = !{i32 7, !"uwtable", i32 2}
!4 = !{!5, !5, i64 0}
!5 = !{!"omnipotent char", !6, i64 0}
!6 = !{!"Simple C++ TBAA"}
!7 = !{!8, !8, i64 0}
!8 = !{!"int", !5, i64 0}
!9 = !{!10, !10, i64 0}
!10 = !{!"any pointer", !5, i64 0}
